target datalayout = "e-m:e-p270:32:32-p271:32:32-p272:64:64-i64:64-i128:128-f80:128-n8:16:32:64-S128"
target triple = "x86_64-pc-linux-gnu"

%struct.mi_segment_s = type { %struct.mi_memid_s, i8, i8, i64, ptr, ptr, ptr, i8, i8, i64, i64, i64, i64, i64, i64, ptr, ptr, i64, i64, i32, [1 x %struct.mi_page_s] }
%struct.mi_memid_s = type { %union.anon, i8, i8, i8, i32 }
%union.anon = type { %struct.mi_memid_os_info }
%struct.mi_memid_os_info = type { ptr, i64 }
%struct.mi_page_s = type { i8, i8, i16, i16, %union.mi_page_flags_s, i8, ptr, ptr, i16, i8, i8, i64, ptr, i64, i64, ptr, ptr }
%union.mi_page_flags_s = type { i8 }
%struct.mi_arena_s = type { i32, %struct.mi_memid_s, ptr, i64, i64, i64, %struct.mi_memid_s, i32, i8, i8, %union.pthread_mutex_t, i64, i64, ptr, ptr, ptr, ptr, [1 x i64] }
%union.pthread_mutex_t = type { %struct.__pthread_mutex_s }
%struct.__pthread_mutex_s = type { i32, i32, i32, i32, i32, i16, i16, %struct.__pthread_internal_list }
%struct.__pthread_internal_list = type { ptr, ptr }
%struct.mi_subproc_s = type { i64, i64, %union.pthread_mutex_t, %union.pthread_mutex_t, ptr, ptr, %struct.mi_memid_s }

; Function Attrs: nounwind uwtable
define internal i64 @mi_arena_block_size(i64 noundef %0) #0 {
  %2 = alloca i64, align 8
  store i64 %0, ptr %2, align 8, !tbaa !15
  %3 = load i64, ptr %2, align 8, !tbaa !15
  %4 = mul i64 %3, 4194304
  ret i64 %4
}

; Function Attrs: inlinehint nounwind uwtable
define internal i64 @mi_bitmap_index_bit(i64 noundef %0) #4 {
  %2 = alloca i64, align 8
  store i64 %0, ptr %2, align 8, !tbaa !15
  %3 = load i64, ptr %2, align 8, !tbaa !15
  ret i64 %3
}

; Function Attrs: nounwind uwtable
define hidden ptr @mi_arena_block_start(ptr noundef %0, i64 noundef %1) #0 {
  %3 = alloca ptr, align 8
  %4 = alloca i64, align 8
  store ptr %0, ptr %3, align 8, !tbaa !16
  store i64 %1, ptr %4, align 8, !tbaa !15
  %5 = load ptr, ptr %3, align 8, !tbaa !16
  %6 = getelementptr inbounds nuw %struct.mi_arena_s, ptr %5, i32 0, i32 2
  %7 = load atomic ptr, ptr %6 seq_cst, align 8, !tbaa !66
  %8 = load i64, ptr %4, align 8, !tbaa !15
  %9 = call i64 @mi_bitmap_index_bit(i64 noundef %8) #12
  %10 = call i64 @mi_arena_block_size(i64 noundef %9) #12
  %11 = getelementptr inbounds nuw i8, ptr %7, i64 %10
  ret ptr %11
}

; Function Attrs: nounwind uwtable
define internal ptr @mi_arena_segment_clear_abandoned_at(ptr noundef %0, ptr noundef %1, i64 noundef %2) #0 {
  %4 = alloca ptr, align 8
  %5 = alloca ptr, align 8
  %6 = alloca ptr, align 8
  %7 = alloca i64, align 8
  %8 = alloca ptr, align 8
  %9 = alloca i8, align 1
  %10 = alloca i32, align 4
  %11 = alloca i64, align 8
  %12 = alloca i64, align 8
  store ptr %0, ptr %5, align 8, !tbaa !16
  store ptr %1, ptr %6, align 8, !tbaa !25
  store i64 %2, ptr %7, align 8, !tbaa !15
  %13 = load ptr, ptr %5, align 8, !tbaa !16
  %14 = getelementptr inbounds nuw %struct.mi_arena_s, ptr %13, i32 0, i32 16
  %15 = load ptr, ptr %14, align 8, !tbaa !18
  %16 = load ptr, ptr %5, align 8, !tbaa !16
  %17 = getelementptr inbounds nuw %struct.mi_arena_s, ptr %16, i32 0, i32 4
  %18 = load i64, ptr %17, align 8, !tbaa !20
  %19 = load i64, ptr %7, align 8, !tbaa !15
  %20 = call zeroext i1 @_mi_bitmap_unclaim(ptr noundef %15, i64 noundef %18, i64 noundef 1, i64 noundef %19) #12
  br i1 %20, label %22, label %21

21:                                               ; preds = %3
  store ptr null, ptr %4, align 8
  br label %48

22:                                               ; preds = %3
  call void @llvm.lifetime.start.p0(i64 8, ptr %8) #13
  %23 = load ptr, ptr %5, align 8, !tbaa !16
  %24 = load i64, ptr %7, align 8, !tbaa !15
  %25 = call ptr @mi_arena_block_start(ptr noundef %23, i64 noundef %24) #12
  store ptr %25, ptr %8, align 8, !tbaa !3
  %26 = load ptr, ptr %8, align 8, !tbaa !3
  %27 = getelementptr inbounds nuw %struct.mi_segment_s, ptr %26, i32 0, i32 4
  %28 = load ptr, ptr %27, align 8, !tbaa !24
  %29 = load ptr, ptr %6, align 8, !tbaa !25
  %30 = icmp ne ptr %28, %29
  br i1 %30, label %31, label %41

31:                                               ; preds = %22
  call void @llvm.lifetime.start.p0(i64 1, ptr %9) #13
  %32 = load ptr, ptr %5, align 8, !tbaa !16
  %33 = getelementptr inbounds nuw %struct.mi_arena_s, ptr %32, i32 0, i32 16
  %34 = load ptr, ptr %33, align 8, !tbaa !18
  %35 = load ptr, ptr %5, align 8, !tbaa !16
  %36 = getelementptr inbounds nuw %struct.mi_arena_s, ptr %35, i32 0, i32 4
  %37 = load i64, ptr %36, align 8, !tbaa !20
  %38 = load i64, ptr %7, align 8, !tbaa !15
  %39 = call zeroext i1 @_mi_bitmap_claim(ptr noundef %34, i64 noundef %37, i64 noundef 1, i64 noundef %38, ptr noundef null) #12
  %40 = zext i1 %39 to i8
  store i8 %40, ptr %9, align 1, !tbaa !21
  store ptr null, ptr %4, align 8
  store i32 1, ptr %10, align 4
  call void @llvm.lifetime.end.p0(i64 1, ptr %9) #13
  br label %47

41:                                               ; preds = %22
  %42 = load ptr, ptr %6, align 8, !tbaa !25
  %43 = getelementptr inbounds nuw %struct.mi_subproc_s, ptr %42, i32 0, i32 0
  store i64 1, ptr %11, align 8, !tbaa !15
  %44 = load i64, ptr %11, align 8
  %45 = atomicrmw sub ptr %43, i64 %44 monotonic, align 8
  store i64 %45, ptr %12, align 8
  %46 = load ptr, ptr %8, align 8, !tbaa !3
  store ptr %46, ptr %4, align 8
  store i32 1, ptr %10, align 4
  br label %47

47:                                               ; preds = %41, %31
  call void @llvm.lifetime.end.p0(i64 8, ptr %8) #13
  br label %48

48:                                               ; preds = %47, %21
  %49 = load ptr, ptr %4, align 8
  ret ptr %49
}