; Function Attrs: nounwind uwtable
define internal fastcc ptr @mi_arena_segment_clear_abandoned_at(ptr noundef nonnull readonly captures(none) %0, ptr noundef captures(address) %1, i64 noundef %2) unnamed_addr #0 {
  %4 = getelementptr inbounds nuw i8, ptr %0, i64 176
  %5 = load ptr, ptr %4, align 8, !tbaa !15
  %6 = getelementptr inbounds nuw i8, ptr %0, i64 48
  %7 = load i64, ptr %6, align 8, !tbaa !17
  %8 = tail call zeroext i1 @_mi_bitmap_unclaim(ptr noundef %5, i64 noundef %7, i64 noundef 1, i64 noundef %2) #20
  br i1 %8, label %9, label %22

9:                                                ; preds = %3
  %10 = getelementptr inbounds nuw i8, ptr %0, i64 32
  %11 = load atomic ptr, ptr %10 seq_cst, align 8, !tbaa !49
  %12 = shl i64 %2, 22
  %13 = getelementptr inbounds nuw i8, ptr %11, i64 %12
  %14 = getelementptr inbounds nuw i8, ptr %13, i64 40
  %15 = load ptr, ptr %14, align 8, !tbaa !18
  %.not = icmp eq ptr %15, %1
  br i1 %.not, label %20, label %16

16:                                               ; preds = %9
  %17 = load ptr, ptr %4, align 8, !tbaa !15
  %18 = load i64, ptr %6, align 8, !tbaa !17
  %19 = tail call zeroext i1 @_mi_bitmap_claim(ptr noundef %17, i64 noundef %18, i64 noundef 1, i64 noundef %2, ptr noundef null) #20
  br label %22

20:                                               ; preds = %9
  %21 = atomicrmw sub ptr %1, i64 1 monotonic, align 8
  br label %22

22:                                               ; preds = %16, %20, %3
  %.0 = phi ptr [ null, %3 ], [ null, %16 ], [ %13, %20 ]
  ret ptr %.0
}